; Function Attrs: mustprogress uwtable
define noundef zeroext i1 @_ZN3g2o25EdgeSE2Segment2DPointLine4readERSi(ptr noundef nonnull align 8 dereferenceable(388) %0, ptr noundef nonnull align 8 dereferenceable(16) %1) unnamed_addr #3 align 2 personality ptr @__gxx_personality_v0 {
  %3 = getelementptr inbounds nuw i8, ptr %0, i64 384
  %4 = tail call noundef nonnull align 8 dereferenceable(16) ptr @_ZNSirsERi(ptr noundef nonnull align 8 dereferenceable(16) %1, ptr noundef nonnull align 4 dereferenceable(4) %3)
  %5 = getelementptr inbounds nuw i8, ptr %0, i64 176
  br label %6

6:                                                ; preds = %12, %2
  %indvars.iv.i = phi i64 [ 0, %2 ], [ %indvars.iv.next.i, %12 ]
  %7 = load ptr, ptr %1, align 8
  %8 = getelementptr i8, ptr %7, i64 -24
  %9 = load i64, ptr %8, align 8
  %10 = getelementptr inbounds i8, ptr %1, i64 %9
  %11 = tail call noundef zeroext i1 @_ZNKSt9basic_iosIcSt11char_traitsIcEE4goodEv(ptr noundef nonnull align 8 dereferenceable(264) %10)
  br i1 %11, label %12, label %.critedge.i

12:                                               ; preds = %6
  %13 = getelementptr inbounds double, ptr %5, i64 %indvars.iv.i
  %14 = tail call noundef nonnull align 8 dereferenceable(16) ptr @_ZNSirsERd(ptr noundef nonnull align 8 dereferenceable(16) %1, ptr noundef nonnull align 8 dereferenceable(8) %13)
  %indvars.iv.next.i = add nuw nsw i64 %indvars.iv.i, 1
  %exitcond.not.i = icmp eq i64 %indvars.iv.next.i, 3
  br i1 %exitcond.not.i, label %.critedge.i, label %6, !llvm.loop !10

.critedge.i:                                      ; preds = %12, %6
  %15 = load ptr, ptr %1, align 8
  %16 = getelementptr i8, ptr %15, i64 -24
  %17 = load i64, ptr %16, align 8
  %18 = getelementptr inbounds i8, ptr %1, i64 %17
  %19 = tail call noundef zeroext i1 @_ZNKSt9basic_iosIcSt11char_traitsIcEE4goodEv(ptr noundef nonnull align 8 dereferenceable(264) %18)
  br i1 %19, label %_ZN3g2o8internal10readVectorIN5Eigen6MatrixIdLi3ELi1ELi0ELi3ELi1EEEEEbRSiRNS2_9DenseBaseIT_EE.exit, label %20

20:                                               ; preds = %.critedge.i
  %21 = load ptr, ptr %1, align 8
  %22 = getelementptr i8, ptr %21, i64 -24
  %23 = load i64, ptr %22, align 8
  %24 = getelementptr inbounds i8, ptr %1, i64 %23
  %25 = tail call noundef zeroext i1 @_ZNKSt9basic_iosIcSt11char_traitsIcEE3eofEv(ptr noundef nonnull align 8 dereferenceable(264) %24)
  br label %_ZN3g2o8internal10readVectorIN5Eigen6MatrixIdLi3ELi1ELi0ELi3ELi1EEEEEbRSiRNS2_9DenseBaseIT_EE.exit

_ZN3g2o8internal10readVectorIN5Eigen6MatrixIdLi3ELi1ELi0ELi3ELi1EEEEEbRSiRNS2_9DenseBaseIT_EE.exit: ; preds = %.critedge.i, %20
  %26 = tail call noundef zeroext i1 @_ZN3g2o8BaseEdgeILi3EN5Eigen6MatrixIdLi3ELi1ELi0ELi3ELi1EEEE21readInformationMatrixERSi(ptr noundef nonnull align 8 dereferenceable(296) %0, ptr noundef nonnull align 8 dereferenceable(16) %1)
  ret i1 %26
}